target datalayout = "e-m:e-p270:32:32-p271:32:32-p272:64:64-i64:64-i128:128-f80:128-n8:16:32:64-S128"
target triple = "x86_64-pc-linux-gnu"

%struct.UTrie2 = type { ptr, ptr, ptr, i32, i32, i16, i16, i32, i32, i32, i32, ptr, i32, i8, i8, i16, ptr }

@_ZL9propsTrie = internal constant %struct.UTrie2 { ptr @_ZL15propsTrie_index, ptr getelementptr (i8, ptr @_ZL15propsTrie_index, i64 9496), ptr null, i32 4748, i32 19048, i16 2624, i16 4876, i32 0, i32 0, i32 1114112, i32 23792, ptr null, i32 0, i8 0, i8 0, i16 0, ptr null }, align 8

; Function Attrs: mustprogress nounwind uwtable
define i32 @u_charDigitValue_77(i32 noundef %0) #0 {
  %2 = alloca i32, align 4
  %3 = alloca i32, align 4
  %4 = alloca i32, align 4
  %5 = alloca i32, align 4
  %6 = alloca i32, align 4
  store i32 %0, ptr %3, align 4, !tbaa !3
  call void @llvm.lifetime.start.p0(i64 4, ptr %4) #6
  call void @llvm.lifetime.start.p0(i64 4, ptr %5) #6
  %7 = load ptr, ptr @_ZL9propsTrie, align 8, !tbaa !7
  %8 = load i32, ptr %3, align 4, !tbaa !3
  %9 = icmp ult i32 %8, 55296
  br i1 %9, label %10, label %23

10:                                               ; preds = %1
  %11 = load ptr, ptr @_ZL9propsTrie, align 8, !tbaa !7
  %12 = load i32, ptr %3, align 4, !tbaa !3
  %13 = ashr i32 %12, 5
  %14 = add nsw i32 0, %13
  %15 = sext i32 %14 to i64
  %16 = getelementptr inbounds i16, ptr %11, i64 %15
  %17 = load i16, ptr %16, align 2, !tbaa !14
  %18 = zext i16 %17 to i32
  %19 = shl i32 %18, 2
  %20 = load i32, ptr %3, align 4, !tbaa !3
  %21 = and i32 %20, 31
  %22 = add nsw i32 %19, %21
  br label %78

23:                                               ; preds = %1
  %24 = load i32, ptr %3, align 4, !tbaa !3
  %25 = icmp ule i32 %24, 65535
  br i1 %25, label %26, label %42

26:                                               ; preds = %23
  %27 = load ptr, ptr @_ZL9propsTrie, align 8, !tbaa !7
  %28 = load i32, ptr %3, align 4, !tbaa !3
  %29 = icmp sle i32 %28, 56319
  %30 = select i1 %29, i32 320, i32 0
  %31 = load i32, ptr %3, align 4, !tbaa !3
  %32 = ashr i32 %31, 5
  %33 = add nsw i32 %30, %32
  %34 = sext i32 %33 to i64
  %35 = getelementptr inbounds i16, ptr %27, i64 %34
  %36 = load i16, ptr %35, align 2, !tbaa !14
  %37 = zext i16 %36 to i32
  %38 = shl i32 %37, 2
  %39 = load i32, ptr %3, align 4, !tbaa !3
  %40 = and i32 %39, 31
  %41 = add nsw i32 %38, %40
  br label %76

42:                                               ; preds = %23
  %43 = load i32, ptr %3, align 4, !tbaa !3
  %44 = icmp ugt i32 %43, 1114111
  br i1 %44, label %45, label %46

45:                                               ; preds = %42
  br label %74

46:                                               ; preds = %42
  %47 = load i32, ptr %3, align 4, !tbaa !3
  %48 = icmp sge i32 %47, 1114112
  br i1 %48, label %49, label %50

49:                                               ; preds = %46
  br label %72

50:                                               ; preds = %46
  %51 = load ptr, ptr @_ZL9propsTrie, align 8, !tbaa !7
  %52 = load ptr, ptr @_ZL9propsTrie, align 8, !tbaa !7
  %53 = load i32, ptr %3, align 4, !tbaa !3
  %54 = ashr i32 %53, 11
  %55 = add nsw i32 2080, %54
  %56 = sext i32 %55 to i64
  %57 = getelementptr inbounds i16, ptr %52, i64 %56
  %58 = load i16, ptr %57, align 2, !tbaa !14
  %59 = zext i16 %58 to i32
  %60 = load i32, ptr %3, align 4, !tbaa !3
  %61 = ashr i32 %60, 5
  %62 = and i32 %61, 63
  %63 = add nsw i32 %59, %62
  %64 = sext i32 %63 to i64
  %65 = getelementptr inbounds i16, ptr %51, i64 %64
  %66 = load i16, ptr %65, align 2, !tbaa !14
  %67 = zext i16 %66 to i32
  %68 = shl i32 %67, 2
  %69 = load i32, ptr %3, align 4, !tbaa !3
  %70 = and i32 %69, 31
  %71 = add nsw i32 %68, %70
  br label %72

72:                                               ; preds = %50, %49
  %73 = phi i32 [ 23792, %49 ], [ %71, %50 ]
  br label %74

74:                                               ; preds = %72, %45
  %75 = phi i32 [ 4876, %45 ], [ %73, %72 ]
  br label %76

76:                                               ; preds = %74, %26
  %77 = phi i32 [ %41, %26 ], [ %75, %74 ]
  br label %78

78:                                               ; preds = %76, %10
  %79 = phi i32 [ %22, %10 ], [ %77, %76 ]
  %80 = sext i32 %79 to i64
  %81 = getelementptr inbounds i16, ptr %7, i64 %80
  %82 = load i16, ptr %81, align 2, !tbaa !14
  %83 = zext i16 %82 to i32
  store i32 %83, ptr %4, align 4, !tbaa !3
  %84 = load i32, ptr %4, align 4, !tbaa !3
  %85 = lshr i32 %84, 6
  %86 = sub nsw i32 %85, 1
  store i32 %86, ptr %5, align 4, !tbaa !3
  %87 = load i32, ptr %5, align 4, !tbaa !3
  %88 = icmp sle i32 %87, 9
  br i1 %88, label %89, label %91

89:                                               ; preds = %78
  %90 = load i32, ptr %5, align 4, !tbaa !3
  store i32 %90, ptr %2, align 4
  store i32 1, ptr %6, align 4
  br label %92

91:                                               ; preds = %78
  store i32 -1, ptr %2, align 4
  store i32 1, ptr %6, align 4
  br label %92

92:                                               ; preds = %91, %89
  call void @llvm.lifetime.end.p0(i64 4, ptr %5) #6
  call void @llvm.lifetime.end.p0(i64 4, ptr %4) #6
  %93 = load i32, ptr %2, align 4
  ret i32 %93
}